target datalayout = "e-m:e-p270:32:32-p271:32:32-p272:64:64-i64:64-i128:128-f80:128-n8:16:32:64-S128"
target triple = "x86_64-pc-linux-gnu"

%class.G1Allocator = type { ptr, ptr, i8, i8, i64, ptr, ptr, %class.OldGCAllocRegion, ptr }
%class.OldGCAllocRegion = type { %class.G1GCAllocRegion.base, [7 x i8] }
%class.G1GCAllocRegion.base = type <{ %class.G1AllocRegion.base, [4 x i8], i64, ptr, i8 }>
%class.G1AllocRegion.base = type <{ ptr, ptr, i32, [4 x i8], ptr, i32 }>
%class.SurvivorGCAllocRegion = type { %class.G1GCAllocRegion.base, [7 x i8] }

; Function Attrs: mustprogress nounwind uwtable
define linkonce_odr hidden noundef ptr @_ZN11G1Allocator24survivor_gc_alloc_regionEj(ptr noundef nonnull align 8 dereferenceable(120) %0, i32 noundef %1) #1 comdat align 2 {
  %3 = alloca ptr, align 8
  %4 = alloca i32, align 4
  store ptr %0, ptr %3, align 8
  store i32 %1, ptr %4, align 4
  %5 = load ptr, ptr %3, align 8
  %6 = getelementptr inbounds %class.G1Allocator, ptr %5, i32 0, i32 6
  %7 = load ptr, ptr %6, align 8
  %8 = load i32, ptr %4, align 4
  %9 = zext i32 %8 to i64
  %10 = getelementptr inbounds %class.SurvivorGCAllocRegion, ptr %7, i64 %9
  ret ptr %10
}

; Function Attrs: mustprogress nounwind uwtable
define hidden void @_ZN11G1Allocator21init_gc_alloc_regionsEP10G1EvacInfo(ptr noundef nonnull align 8 dereferenceable(120) %0, ptr noundef %1) #1 align 2 {
  %3 = alloca ptr, align 8
  %4 = alloca ptr, align 8
  %5 = alloca i32, align 4
  store ptr %0, ptr %3, align 8
  store ptr %1, ptr %4, align 8
  %6 = load ptr, ptr %3, align 8
  br label %7

7:                                                ; preds = %2
  br label %8

8:                                                ; preds = %7
  %9 = getelementptr inbounds %class.G1Allocator, ptr %6, i32 0, i32 2
  store i8 0, ptr %9, align 8
  %10 = getelementptr inbounds %class.G1Allocator, ptr %6, i32 0, i32 3
  store i8 0, ptr %10, align 1
  store i32 0, ptr %5, align 4
  br label %11

11:                                               ; preds = %23, %8
  %12 = load i32, ptr %5, align 4
  %13 = zext i32 %12 to i64
  %14 = getelementptr inbounds %class.G1Allocator, ptr %6, i32 0, i32 4
  %15 = load i64, ptr %14, align 8
  %16 = icmp ult i64 %13, %15
  br i1 %16, label %17, label %26

17:                                               ; preds = %11
  %18 = load i32, ptr %5, align 4
  %19 = call noundef ptr @_ZN11G1Allocator24survivor_gc_alloc_regionEj(ptr noundef nonnull align 8 dereferenceable(120) %6, i32 noundef %18)
  %20 = load ptr, ptr %19, align 8
  %21 = getelementptr inbounds ptr, ptr %20, i64 3
  %22 = load ptr, ptr %21, align 8
  call void %22(ptr noundef nonnull align 8 dereferenceable(36) %19)
  br label %23

23:                                               ; preds = %17
  %24 = load i32, ptr %5, align 4
  %25 = add i32 %24, 1
  store i32 %25, ptr %5, align 4
  br label %11, !llvm.loop !11

26:                                               ; preds = %11
  %27 = getelementptr inbounds %class.G1Allocator, ptr %6, i32 0, i32 7
  call void @_ZN13G1AllocRegion4initEv(ptr noundef nonnull align 8 dereferenceable(36) %27)
  %28 = load ptr, ptr %4, align 8
  %29 = getelementptr inbounds %class.G1Allocator, ptr %6, i32 0, i32 7
  %30 = getelementptr inbounds %class.G1Allocator, ptr %6, i32 0, i32 8
  call void @_ZN11G1Allocator25reuse_retained_old_regionEP10G1EvacInfoP16OldGCAllocRegionPP12G1HeapRegion(ptr noundef nonnull align 8 dereferenceable(120) %6, ptr noundef %28, ptr noundef %29, ptr noundef %30)
  ret void
}