; Function Attrs: mustprogress nounwind uwtable
define hidden void @_ZN11G1Allocator21init_gc_alloc_regionsEP10G1EvacInfo(ptr noundef nonnull align 8 dereferenceable(120) %0, ptr nocapture noundef writeonly %1) local_unnamed_addr #0 align 2 {
  %3 = getelementptr inbounds i8, ptr %0, i64 16
  store i8 0, ptr %3, align 8
  %4 = getelementptr inbounds i8, ptr %0, i64 17
  store i8 0, ptr %4, align 1
  %5 = getelementptr inbounds i8, ptr %0, i64 24
  %6 = load i64, ptr %5, align 8
  %.not = icmp eq i64 %6, 0
  br i1 %.not, label %._crit_edge, label %.lr.ph

.lr.ph:                                           ; preds = %2
  %7 = getelementptr inbounds i8, ptr %0, i64 40
  br label %8

8:                                                ; preds = %.lr.ph, %8
  %9 = phi i64 [ 0, %.lr.ph ], [ %16, %8 ]
  %.04 = phi i32 [ 0, %.lr.ph ], [ %15, %8 ]
  %10 = load ptr, ptr %7, align 8
  %11 = getelementptr inbounds %class.SurvivorGCAllocRegion, ptr %10, i64 %9
  %12 = load ptr, ptr %11, align 8
  %13 = getelementptr inbounds i8, ptr %12, i64 24
  %14 = load ptr, ptr %13, align 8
  tail call void %14(ptr noundef nonnull align 8 dereferenceable(36) %11) #15
  %15 = add i32 %.04, 1
  %16 = zext i32 %15 to i64
  %17 = load i64, ptr %5, align 8
  %18 = icmp ugt i64 %17, %16
  br i1 %18, label %8, label %._crit_edge, !llvm.loop !10

._crit_edge:                                      ; preds = %8, %2
  %19 = getelementptr inbounds i8, ptr %0, i64 48
  tail call void @_ZN13G1AllocRegion4initEv(ptr noundef nonnull align 8 dereferenceable(36) %19) #15
  %20 = getelementptr inbounds i8, ptr %0, i64 112
  tail call void @_ZN11G1Allocator25reuse_retained_old_regionEP10G1EvacInfoP16OldGCAllocRegionPP12G1HeapRegion(ptr noundef nonnull align 8 dereferenceable(120) %0, ptr noundef %1, ptr noundef nonnull %19, ptr noundef nonnull %20)
  ret void
}